target datalayout = "e-m:e-p270:32:32-p271:32:32-p272:64:64-i64:64-i128:128-f80:128-n8:16:32:64-S128"
target triple = "x86_64-pc-linux-gnu"

%struct.wtap = type { ptr, ptr, i8, i32, i32, ptr, ptr, ptr, i32, ptr, ptr, ptr, ptr, ptr, ptr, ptr, ptr, ptr, ptr, i32, i32, ptr, ptr, ptr, ptr }
%struct.wtap_rec = type { i32, i32, i32, %struct.nstime_t, i32, %struct.nstime_t, i8, %union.anon, ptr, i8, %struct.Buffer, %struct.Buffer }
%struct.nstime_t = type { i64, i32 }
%union.anon = type { %struct.wtap_packet_header }
%struct.wtap_packet_header = type { i32, i32, i32, i32, %union.wtap_pseudo_header }
%union.wtap_pseudo_header = type { %struct.erf_mc_phdr }
%struct.erf_mc_phdr = type { %struct.erf_phdr, [16 x %struct.erf_ehdr], %union.anon.1 }
%struct.erf_phdr = type { i64, i8, i8, i16, i16, i16 }
%struct.erf_ehdr = type { i64 }
%union.anon.1 = type { i32 }
%struct.Buffer = type { ptr, i64, i64, i64 }

; Function Attrs: null_pointer_is_valid sspstrong uwtable
define internal zeroext i1 @iptrace_read_2_0(ptr noundef %0, ptr noundef %1, ptr noundef %2, ptr noundef %3, ptr noundef %4) #0 {
  %6 = alloca i1, align 1
  %7 = alloca ptr, align 8
  %8 = alloca ptr, align 8
  %9 = alloca ptr, align 8
  %10 = alloca ptr, align 8
  %11 = alloca ptr, align 8
  store ptr %0, ptr %7, align 8
  store ptr %1, ptr %8, align 8
  store ptr %2, ptr %9, align 8
  store ptr %3, ptr %10, align 8
  store ptr %4, ptr %11, align 8
  %12 = load ptr, ptr %7, align 8
  %13 = getelementptr inbounds nuw %struct.wtap, ptr %12, i32 0, i32 0
  %14 = load ptr, ptr %13, align 8
  %15 = call i64 @file_tell(ptr noundef %14)
  %16 = load ptr, ptr %11, align 8
  store i64 %15, ptr %16, align 8
  %17 = load ptr, ptr %7, align 8
  %18 = load ptr, ptr %7, align 8
  %19 = getelementptr inbounds nuw %struct.wtap, ptr %18, i32 0, i32 0
  %20 = load ptr, ptr %19, align 8
  %21 = load ptr, ptr %8, align 8
  %22 = load ptr, ptr %9, align 8
  %23 = load ptr, ptr %10, align 8
  %24 = call zeroext i1 @iptrace_read_rec_2_0(ptr noundef %17, ptr noundef %20, ptr noundef %21, ptr noundef %22, ptr noundef %23)
  br i1 %24, label %26, label %25

25:                                               ; preds = %5
  store i1 false, ptr %6, align 1
  br label %52

26:                                               ; preds = %5
  %27 = load ptr, ptr %7, align 8
  %28 = getelementptr inbounds nuw %struct.wtap, ptr %27, i32 0, i32 19
  %29 = load i32, ptr %28, align 8
  %30 = icmp eq i32 %29, 0
  br i1 %30, label %31, label %38

31:                                               ; preds = %26
  %32 = load ptr, ptr %8, align 8
  %33 = getelementptr inbounds nuw %struct.wtap_rec, ptr %32, i32 0, i32 7
  %34 = getelementptr inbounds nuw %struct.wtap_packet_header, ptr %33, i32 0, i32 2
  %35 = load i32, ptr %34, align 8
  %36 = load ptr, ptr %7, align 8
  %37 = getelementptr inbounds nuw %struct.wtap, ptr %36, i32 0, i32 19
  store i32 %35, ptr %37, align 8
  br label %51

38:                                               ; preds = %26
  %39 = load ptr, ptr %7, align 8
  %40 = getelementptr inbounds nuw %struct.wtap, ptr %39, i32 0, i32 19
  %41 = load i32, ptr %40, align 8
  %42 = load ptr, ptr %8, align 8
  %43 = getelementptr inbounds nuw %struct.wtap_rec, ptr %42, i32 0, i32 7
  %44 = getelementptr inbounds nuw %struct.wtap_packet_header, ptr %43, i32 0, i32 2
  %45 = load i32, ptr %44, align 8
  %46 = icmp ne i32 %41, %45
  br i1 %46, label %47, label %50

47:                                               ; preds = %38
  %48 = load ptr, ptr %7, align 8
  %49 = getelementptr inbounds nuw %struct.wtap, ptr %48, i32 0, i32 19
  store i32 -1, ptr %49, align 8
  br label %50

50:                                               ; preds = %47, %38
  br label %51

51:                                               ; preds = %50, %31
  store i1 true, ptr %6, align 1
  br label %52

52:                                               ; preds = %51, %25
  %53 = load i1, ptr %6, align 1
  ret i1 %53
}